; Function Attrs: mustprogress uwtable
define internal void @"_ZN8pybind116class_IZZ22test_submodule_modulesRNS_7module_EENK3$_0clEvE13DupeExceptionJEE43dealloc_release_gil_before_calling_cpp_dtorERNS_6detail16value_and_holderE"(ptr noundef nonnull readonly align 8 captures(none) dereferenceable(32) %0) #5 align 2 personality ptr @__gxx_personality_v0 {
  %2 = alloca %"struct.pybind11::error_scope", align 8
  call void @llvm.lifetime.start.p0(i64 24, ptr nonnull %2) #30
  %3 = getelementptr inbounds nuw i8, ptr %2, i64 8
  %4 = getelementptr inbounds nuw i8, ptr %2, i64 16
  call void @PyErr_Fetch(ptr noundef nonnull align 8 dereferenceable(24) %2, ptr noundef nonnull %3, ptr noundef nonnull %4)
  %5 = invoke ptr @PyEval_SaveThread()
          to label %6 unwind label %7

6:                                                ; preds = %1
  call fastcc void @"_ZN8pybind116class_IZZ22test_submodule_modulesRNS_7module_EENK3$_0clEvE13DupeExceptionJEE12dealloc_implERNS_6detail16value_and_holderE"(ptr noundef nonnull align 8 dereferenceable(32) %0)
  invoke void @PyEval_RestoreThread(ptr noundef %5)
          to label %9 unwind label %7

7:                                                ; preds = %6, %1
  %8 = landingpad { ptr, i32 }
          cleanup
  call void @_ZN8pybind1111error_scopeD2Ev(ptr noundef nonnull align 8 dereferenceable(24) %2) #30
  call void @llvm.lifetime.end.p0(i64 24, ptr nonnull %2) #30
  resume { ptr, i32 } %8

9:                                                ; preds = %6
  %10 = load ptr, ptr %2, align 8, !tbaa !16
  %11 = load ptr, ptr %3, align 8, !tbaa !19
  %12 = load ptr, ptr %4, align 8, !tbaa !20
  invoke void @PyErr_Restore(ptr noundef %10, ptr noundef %11, ptr noundef %12)
          to label %_ZN8pybind1111error_scopeD2Ev.exit unwind label %13

13:                                               ; preds = %9
  %14 = landingpad { ptr, i32 }
          catch ptr null
  %15 = extractvalue { ptr, i32 } %14, 0
  call void @__clang_call_terminate(ptr %15) #31
  unreachable

_ZN8pybind1111error_scopeD2Ev.exit:               ; preds = %9
  call void @llvm.lifetime.end.p0(i64 24, ptr nonnull %2) #30
  ret void
}